ARM GAS  /tmp/ccADEouQ.s 			page 1


   1              		.cpu cortex-m0plus
   2              		.arch armv6s-m
   3              		.fpu softvfp
   4              		.eabi_attribute 20, 1
   5              		.eabi_attribute 21, 1
   6              		.eabi_attribute 23, 3
   7              		.eabi_attribute 24, 1
   8              		.eabi_attribute 25, 1
   9              		.eabi_attribute 26, 1
  10              		.eabi_attribute 30, 4
  11              		.eabi_attribute 34, 0
  12              		.eabi_attribute 18, 4
  13              		.file	"stm32g0xx_it.c"
  14              		.text
  15              	.Ltext0:
  16              		.cfi_sections	.debug_frame
  17              		.file 1 "Core/Src/stm32g0xx_it.c"
  18              		.section	.text.NMI_Handler,"ax",%progbits
  19              		.align	1
  20              		.global	NMI_Handler
  21              		.syntax unified
  22              		.code	16
  23              		.thumb_func
  25              	NMI_Handler:
  26              	.LFB420:
   1:Core/Src/stm32g0xx_it.c **** /* USER CODE BEGIN Header */
   2:Core/Src/stm32g0xx_it.c **** /**
   3:Core/Src/stm32g0xx_it.c ****   ******************************************************************************
   4:Core/Src/stm32g0xx_it.c ****   * @file    stm32g0xx_it.c
   5:Core/Src/stm32g0xx_it.c ****   * @brief   Interrupt Service Routines.
   6:Core/Src/stm32g0xx_it.c ****   ******************************************************************************
   7:Core/Src/stm32g0xx_it.c ****   */
   8:Core/Src/stm32g0xx_it.c **** /* USER CODE END Header */
   9:Core/Src/stm32g0xx_it.c **** 
  10:Core/Src/stm32g0xx_it.c **** #include "main.h"
  11:Core/Src/stm32g0xx_it.c **** #include "stm32g0xx_it.h"
  12:Core/Src/stm32g0xx_it.c **** 
  13:Core/Src/stm32g0xx_it.c **** extern UART_HandleTypeDef huart2;
  14:Core/Src/stm32g0xx_it.c **** 
  15:Core/Src/stm32g0xx_it.c **** void NMI_Handler(void)
  16:Core/Src/stm32g0xx_it.c **** {
  27              		.loc 1 16 1 view -0
  28              		.cfi_startproc
  29              		@ Volatile: function does not return.
  30              		@ args = 0, pretend = 0, frame = 0
  31              		@ frame_needed = 0, uses_anonymous_args = 0
  32              		@ link register save eliminated.
  33              	.L2:
  17:Core/Src/stm32g0xx_it.c ****   while (1)
  34              		.loc 1 17 3 view .LVU1
  18:Core/Src/stm32g0xx_it.c ****   {
  19:Core/Src/stm32g0xx_it.c ****   }
  35              		.loc 1 19 3 view .LVU2
  17:Core/Src/stm32g0xx_it.c ****   while (1)
  36              		.loc 1 17 9 view .LVU3
  37 0000 FEE7     		b	.L2
  38              		.cfi_endproc
ARM GAS  /tmp/ccADEouQ.s 			page 2


  39              	.LFE420:
  41              		.section	.text.HardFault_Handler,"ax",%progbits
  42              		.align	1
  43              		.global	HardFault_Handler
  44              		.syntax unified
  45              		.code	16
  46              		.thumb_func
  48              	HardFault_Handler:
  49              	.LFB421:
  20:Core/Src/stm32g0xx_it.c **** }
  21:Core/Src/stm32g0xx_it.c **** 
  22:Core/Src/stm32g0xx_it.c **** void HardFault_Handler(void)
  23:Core/Src/stm32g0xx_it.c **** {
  50              		.loc 1 23 1 view -0
  51              		.cfi_startproc
  52              		@ Volatile: function does not return.
  53              		@ args = 0, pretend = 0, frame = 0
  54              		@ frame_needed = 0, uses_anonymous_args = 0
  55              		@ link register save eliminated.
  56              	.L4:
  24:Core/Src/stm32g0xx_it.c ****   while (1)
  57              		.loc 1 24 3 view .LVU5
  25:Core/Src/stm32g0xx_it.c ****   {
  26:Core/Src/stm32g0xx_it.c ****   }
  58              		.loc 1 26 3 view .LVU6
  24:Core/Src/stm32g0xx_it.c ****   while (1)
  59              		.loc 1 24 9 view .LVU7
  60 0000 FEE7     		b	.L4
  61              		.cfi_endproc
  62              	.LFE421:
  64              		.section	.text.SVC_Handler,"ax",%progbits
  65              		.align	1
  66              		.global	SVC_Handler
  67              		.syntax unified
  68              		.code	16
  69              		.thumb_func
  71              	SVC_Handler:
  72              	.LFB422:
  27:Core/Src/stm32g0xx_it.c **** }
  28:Core/Src/stm32g0xx_it.c **** 
  29:Core/Src/stm32g0xx_it.c **** void SVC_Handler(void)
  30:Core/Src/stm32g0xx_it.c **** {
  73              		.loc 1 30 1 view -0
  74              		.cfi_startproc
  75              		@ args = 0, pretend = 0, frame = 0
  76              		@ frame_needed = 0, uses_anonymous_args = 0
  77              		@ link register save eliminated.
  31:Core/Src/stm32g0xx_it.c **** }
  78              		.loc 1 31 1 view .LVU9
  79              		@ sp needed
  80 0000 7047     		bx	lr
  81              		.cfi_endproc
  82              	.LFE422:
  84              		.section	.text.PendSV_Handler,"ax",%progbits
  85              		.align	1
  86              		.global	PendSV_Handler
  87              		.syntax unified
ARM GAS  /tmp/ccADEouQ.s 			page 3


  88              		.code	16
  89              		.thumb_func
  91              	PendSV_Handler:
  92              	.LFB427:
  93              		.cfi_startproc
  32:Core/Src/stm32g0xx_it.c **** 
  33:Core/Src/stm32g0xx_it.c **** void PendSV_Handler(void)
  94              		.loc 1 33 6 view -0
  95              		@ args = 0, pretend = 0, frame = 0
  96              		@ frame_needed = 0, uses_anonymous_args = 0
  97              		@ link register save eliminated.
  98              		@ sp needed
  99 0000 7047     		bx	lr
 100              		.cfi_endproc
 101              	.LFE427:
 103              		.section	.text.SysTick_Handler,"ax",%progbits
 104              		.align	1
 105              		.global	SysTick_Handler
 106              		.syntax unified
 107              		.code	16
 108              		.thumb_func
 110              	SysTick_Handler:
 111              	.LFB424:
  34:Core/Src/stm32g0xx_it.c **** {
  35:Core/Src/stm32g0xx_it.c **** }
  36:Core/Src/stm32g0xx_it.c **** 
  37:Core/Src/stm32g0xx_it.c **** void SysTick_Handler(void)
  38:Core/Src/stm32g0xx_it.c **** {
 112              		.loc 1 38 1 view -0
 113              		.cfi_startproc
 114              		@ args = 0, pretend = 0, frame = 0
 115              		@ frame_needed = 0, uses_anonymous_args = 0
  39:Core/Src/stm32g0xx_it.c ****   HAL_IncTick();
 116              		.loc 1 39 3 view .LVU12
  38:Core/Src/stm32g0xx_it.c ****   HAL_IncTick();
 117              		.loc 1 38 1 is_stmt 0 view .LVU13
 118 0000 10B5     		push	{r4, lr}
 119              	.LCFI0:
 120              		.cfi_def_cfa_offset 8
 121              		.cfi_offset 4, -8
 122              		.cfi_offset 14, -4
 123              		.loc 1 39 3 view .LVU14
 124 0002 FFF7FEFF 		bl	HAL_IncTick
 125              	.LVL0:
  40:Core/Src/stm32g0xx_it.c **** }
 126              		.loc 1 40 1 view .LVU15
 127              		@ sp needed
 128 0006 10BD     		pop	{r4, pc}
 129              		.cfi_endproc
 130              	.LFE424:
 132              		.section	.text.USART2_IRQHandler,"ax",%progbits
 133              		.align	1
 134              		.global	USART2_IRQHandler
 135              		.syntax unified
 136              		.code	16
 137              		.thumb_func
 139              	USART2_IRQHandler:
ARM GAS  /tmp/ccADEouQ.s 			page 4


 140              	.LFB425:
  41:Core/Src/stm32g0xx_it.c **** 
  42:Core/Src/stm32g0xx_it.c **** void USART2_IRQHandler(void)
  43:Core/Src/stm32g0xx_it.c **** {
 141              		.loc 1 43 1 is_stmt 1 view -0
 142              		.cfi_startproc
 143              		@ args = 0, pretend = 0, frame = 0
 144              		@ frame_needed = 0, uses_anonymous_args = 0
  44:Core/Src/stm32g0xx_it.c ****   HAL_UART_IRQHandler(&huart2);
 145              		.loc 1 44 3 view .LVU17
  43:Core/Src/stm32g0xx_it.c ****   HAL_UART_IRQHandler(&huart2);
 146              		.loc 1 43 1 is_stmt 0 view .LVU18
 147 0000 10B5     		push	{r4, lr}
 148              	.LCFI1:
 149              		.cfi_def_cfa_offset 8
 150              		.cfi_offset 4, -8
 151              		.cfi_offset 14, -4
 152              		.loc 1 44 3 view .LVU19
 153 0002 0248     		ldr	r0, .L9
 154 0004 FFF7FEFF 		bl	HAL_UART_IRQHandler
 155              	.LVL1:
  45:Core/Src/stm32g0xx_it.c **** }
 156              		.loc 1 45 1 view .LVU20
 157              		@ sp needed
 158 0008 10BD     		pop	{r4, pc}
 159              	.L10:
 160 000a C046     		.align	2
 161              	.L9:
 162 000c 00000000 		.word	huart2
 163              		.cfi_endproc
 164              	.LFE425:
 166              		.text
 167              	.Letext0:
 168              		.file 2 "/usr/lib/gcc/arm-none-eabi/13.2.1/include/stdint.h"
 169              		.file 3 "Drivers/CMSIS/Device/ST/STM32G0xx/Include/stm32g030xx.h"
 170              		.file 4 "Drivers/STM32G0xx_HAL_Driver/Inc/stm32g0xx_hal_def.h"
 171              		.file 5 "Drivers/STM32G0xx_HAL_Driver/Inc/stm32g0xx_hal_dma.h"
 172              		.file 6 "Drivers/STM32G0xx_HAL_Driver/Inc/stm32g0xx_hal_uart.h"
 173              		.file 7 "Drivers/STM32G0xx_HAL_Driver/Inc/stm32g0xx_hal.h"
 174              		.file 8 "Drivers/STM32G0xx_HAL_Driver/Inc/stm32g0xx_ll_dma.h"
ARM GAS  /tmp/ccADEouQ.s 			page 5

